target datalayout = "e-m:e-p270:32:32-p271:32:32-p272:64:64-i64:64-i128:128-f80:128-n8:16:32:64-S128"
target triple = "x86_64-pc-linux-gnu"

%struct.t_forcerec = type { %"class.std::unique_ptr.2", i32, i8, i32, %"class.std::vector", %"class.std::vector", i8, i8, i32, i32, i32, i32, float, %"struct.std::array", %"struct.std::array", %"struct.std::array", %"class.std::unique_ptr.13", float, %"class.std::unique_ptr.21", i32, %"class.std::vector.29", %"class.std::vector.34", %"class.std::vector", %"class.std::unique_ptr.39", %"class.std::unique_ptr.47", i32, %"class.std::vector.55", i32, i32, %"class.std::vector.60", ptr, i32, i32, i8, %"class.std::vector.65", %"class.std::vector.65", ptr, float, i32, float, i32, i32, i32, i32, float, float, float, float, %"class.std::unique_ptr.70", %"class.std::vector.78", %"class.std::unique_ptr.83", %"class.std::unique_ptr.91", ptr, ptr, ptr, %"class.std::unique_ptr.99", %"struct.gmx::EnumerationArray", %"struct.gmx::EnumerationArray.115" }
%"class.std::unique_ptr.2" = type { %"struct.std::__uniq_ptr_data.3" }
%"struct.std::__uniq_ptr_data.3" = type { %"class.std::__uniq_ptr_impl.4" }
%"class.std::__uniq_ptr_impl.4" = type { %"class.std::tuple.5" }
%"class.std::tuple.5" = type { %"struct.std::_Tuple_impl.6" }
%"struct.std::_Tuple_impl.6" = type { %"struct.std::_Head_base.9" }
%"struct.std::_Head_base.9" = type { ptr }
%"struct.std::array" = type { [2 x double] }
%"class.std::unique_ptr.13" = type { %"struct.std::__uniq_ptr_data.14" }
%"struct.std::__uniq_ptr_data.14" = type { %"class.std::__uniq_ptr_impl.15" }
%"class.std::__uniq_ptr_impl.15" = type { %"class.std::tuple.16" }
%"class.std::tuple.16" = type { %"struct.std::_Tuple_impl.17" }
%"struct.std::_Tuple_impl.17" = type { %"struct.std::_Head_base.20" }
%"struct.std::_Head_base.20" = type { ptr }
%"class.std::unique_ptr.21" = type { %"struct.std::__uniq_ptr_data.22" }
%"struct.std::__uniq_ptr_data.22" = type { %"class.std::__uniq_ptr_impl.23" }
%"class.std::__uniq_ptr_impl.23" = type { %"class.std::tuple.24" }
%"class.std::tuple.24" = type { %"struct.std::_Tuple_impl.25" }
%"struct.std::_Tuple_impl.25" = type { %"struct.std::_Head_base.28" }
%"struct.std::_Head_base.28" = type { ptr }
%"class.std::vector.29" = type { %"struct.std::_Vector_base.30" }
%"struct.std::_Vector_base.30" = type { %"struct.std::_Vector_base<gmx::AtomInfoWithinMoleculeBlock, std::allocator<gmx::AtomInfoWithinMoleculeBlock>>::_Vector_impl" }
%"struct.std::_Vector_base<gmx::AtomInfoWithinMoleculeBlock, std::allocator<gmx::AtomInfoWithinMoleculeBlock>>::_Vector_impl" = type { %"struct.std::_Vector_base<gmx::AtomInfoWithinMoleculeBlock, std::allocator<gmx::AtomInfoWithinMoleculeBlock>>::_Vector_impl_data" }
%"struct.std::_Vector_base<gmx::AtomInfoWithinMoleculeBlock, std::allocator<gmx::AtomInfoWithinMoleculeBlock>>::_Vector_impl_data" = type { ptr, ptr, ptr }
%"class.std::vector.34" = type { %"struct.std::_Vector_base.35" }
%"struct.std::_Vector_base.35" = type { %"struct.std::_Vector_base<int, std::allocator<int>>::_Vector_impl" }
%"struct.std::_Vector_base<int, std::allocator<int>>::_Vector_impl" = type { %"struct.std::_Vector_base<int, std::allocator<int>>::_Vector_impl_data" }
%"struct.std::_Vector_base<int, std::allocator<int>>::_Vector_impl_data" = type { ptr, ptr, ptr }
%"class.std::vector" = type { %"struct.std::_Vector_base" }
%"struct.std::_Vector_base" = type { %"struct.std::_Vector_base<gmx::BasicVector<float>, std::allocator<gmx::BasicVector<float>>>::_Vector_impl" }
%"struct.std::_Vector_base<gmx::BasicVector<float>, std::allocator<gmx::BasicVector<float>>>::_Vector_impl" = type { %"struct.std::_Vector_base<gmx::BasicVector<float>, std::allocator<gmx::BasicVector<float>>>::_Vector_impl_data" }
%"struct.std::_Vector_base<gmx::BasicVector<float>, std::allocator<gmx::BasicVector<float>>>::_Vector_impl_data" = type { ptr, ptr, ptr }
%"class.std::unique_ptr.39" = type { %"struct.std::__uniq_ptr_data.40" }
%"struct.std::__uniq_ptr_data.40" = type { %"class.std::__uniq_ptr_impl.41" }
%"class.std::__uniq_ptr_impl.41" = type { %"class.std::tuple.42" }
%"class.std::tuple.42" = type { %"struct.std::_Tuple_impl.43" }
%"struct.std::_Tuple_impl.43" = type { %"struct.std::_Head_base.46" }
%"struct.std::_Head_base.46" = type { ptr }
%"class.std::unique_ptr.47" = type { %"struct.std::__uniq_ptr_data.48" }
%"struct.std::__uniq_ptr_data.48" = type { %"class.std::__uniq_ptr_impl.49" }
%"class.std::__uniq_ptr_impl.49" = type { %"class.std::tuple.50" }
%"class.std::tuple.50" = type { %"struct.std::_Tuple_impl.51" }
%"struct.std::_Tuple_impl.51" = type { %"struct.std::_Head_base.54" }
%"struct.std::_Head_base.54" = type { ptr }
%"class.std::vector.55" = type { %"struct.std::_Vector_base.56" }
%"struct.std::_Vector_base.56" = type { %"struct.std::_Vector_base<std::vector<std::unique_ptr<t_forcetable>>, std::allocator<std::vector<std::unique_ptr<t_forcetable>>>>::_Vector_impl" }
%"struct.std::_Vector_base<std::vector<std::unique_ptr<t_forcetable>>, std::allocator<std::vector<std::unique_ptr<t_forcetable>>>>::_Vector_impl" = type { %"struct.std::_Vector_base<std::vector<std::unique_ptr<t_forcetable>>, std::allocator<std::vector<std::unique_ptr<t_forcetable>>>>::_Vector_impl_data" }
%"struct.std::_Vector_base<std::vector<std::unique_ptr<t_forcetable>>, std::allocator<std::vector<std::unique_ptr<t_forcetable>>>>::_Vector_impl_data" = type { ptr, ptr, ptr }
%"class.std::vector.60" = type { %"struct.std::_Vector_base.61" }
%"struct.std::_Vector_base.61" = type { %"struct.std::_Vector_base<ForceHelperBuffers, std::allocator<ForceHelperBuffers>>::_Vector_impl" }
%"struct.std::_Vector_base<ForceHelperBuffers, std::allocator<ForceHelperBuffers>>::_Vector_impl" = type { %"struct.std::_Vector_base<ForceHelperBuffers, std::allocator<ForceHelperBuffers>>::_Vector_impl_data" }
%"struct.std::_Vector_base<ForceHelperBuffers, std::allocator<ForceHelperBuffers>>::_Vector_impl_data" = type { ptr, ptr, ptr }
%"class.std::vector.65" = type { %"struct.std::_Vector_base.66" }
%"struct.std::_Vector_base.66" = type { %"struct.std::_Vector_base<float, std::allocator<float>>::_Vector_impl" }
%"struct.std::_Vector_base<float, std::allocator<float>>::_Vector_impl" = type { %"struct.std::_Vector_base<float, std::allocator<float>>::_Vector_impl_data" }
%"struct.std::_Vector_base<float, std::allocator<float>>::_Vector_impl_data" = type { ptr, ptr, ptr }
%"class.std::unique_ptr.70" = type { %"struct.std::__uniq_ptr_data.71" }
%"struct.std::__uniq_ptr_data.71" = type { %"class.std::__uniq_ptr_impl.72" }
%"class.std::__uniq_ptr_impl.72" = type { %"class.std::tuple.73" }
%"class.std::tuple.73" = type { %"struct.std::_Tuple_impl.74" }
%"struct.std::_Tuple_impl.74" = type { %"struct.std::_Head_base.77" }
%"struct.std::_Head_base.77" = type { ptr }
%"class.std::vector.78" = type { %"struct.std::_Vector_base.79" }
%"struct.std::_Vector_base.79" = type { %"struct.std::_Vector_base<ListedForces, std::allocator<ListedForces>>::_Vector_impl" }
%"struct.std::_Vector_base<ListedForces, std::allocator<ListedForces>>::_Vector_impl" = type { %"struct.std::_Vector_base<ListedForces, std::allocator<ListedForces>>::_Vector_impl_data" }
%"struct.std::_Vector_base<ListedForces, std::allocator<ListedForces>>::_Vector_impl_data" = type { ptr, ptr, ptr }
%"class.std::unique_ptr.83" = type { %"struct.std::__uniq_ptr_data.84" }
%"struct.std::__uniq_ptr_data.84" = type { %"class.std::__uniq_ptr_impl.85" }
%"class.std::__uniq_ptr_impl.85" = type { %"class.std::tuple.86" }
%"class.std::tuple.86" = type { %"struct.std::_Tuple_impl.87" }
%"struct.std::_Tuple_impl.87" = type { %"struct.std::_Head_base.90" }
%"struct.std::_Head_base.90" = type { ptr }
%"class.std::unique_ptr.91" = type { %"struct.std::__uniq_ptr_data.92" }
%"struct.std::__uniq_ptr_data.92" = type { %"class.std::__uniq_ptr_impl.93" }
%"class.std::__uniq_ptr_impl.93" = type { %"class.std::tuple.94" }
%"class.std::tuple.94" = type { %"struct.std::_Tuple_impl.95" }
%"struct.std::_Tuple_impl.95" = type { %"struct.std::_Head_base.98" }
%"struct.std::_Head_base.98" = type { ptr }
%"class.std::unique_ptr.99" = type { %"struct.std::__uniq_ptr_data.100" }
%"struct.std::__uniq_ptr_data.100" = type { %"class.std::__uniq_ptr_impl.101" }
%"class.std::__uniq_ptr_impl.101" = type { %"class.std::tuple.102" }
%"class.std::tuple.102" = type { %"struct.std::_Tuple_impl.103" }
%"struct.std::_Tuple_impl.103" = type { %"struct.std::_Head_base.106" }
%"struct.std::_Head_base.106" = type { ptr }
%"struct.gmx::EnumerationArray" = type { [3 x %"class.std::unique_ptr.107"] }
%"class.std::unique_ptr.107" = type { %"struct.std::__uniq_ptr_data.108" }
%"struct.std::__uniq_ptr_data.108" = type { %"class.std::__uniq_ptr_impl.109" }
%"class.std::__uniq_ptr_impl.109" = type { %"class.std::tuple.110" }
%"class.std::tuple.110" = type { %"struct.std::_Tuple_impl.111" }
%"struct.std::_Tuple_impl.111" = type { %"struct.std::_Head_base.114" }
%"struct.std::_Head_base.114" = type { ptr }
%"struct.gmx::EnumerationArray.115" = type { [2 x %"class.std::unique_ptr.116"] }
%"class.std::unique_ptr.116" = type { %"struct.std::__uniq_ptr_data.117" }
%"struct.std::__uniq_ptr_data.117" = type { %"class.std::__uniq_ptr_impl.118" }
%"class.std::__uniq_ptr_impl.118" = type { %"class.std::tuple.119" }
%"class.std::tuple.119" = type { %"struct.std::_Tuple_impl.120" }
%"struct.std::_Tuple_impl.120" = type { %"struct.std::_Head_base.123" }
%"struct.std::_Head_base.123" = type { ptr }

; Function Attrs: mustprogress nounwind uwtable
define linkonce_odr void @_ZNSt12_Destroy_auxILb1EE9__destroyIPiEEvT_S3_(ptr noundef %0, ptr noundef %1) #3 comdat align 2 {
  %3 = alloca ptr, align 8
  %4 = alloca ptr, align 8
  store ptr %0, ptr %3, align 8, !tbaa !81
  store ptr %1, ptr %4, align 8, !tbaa !81
  ret void
}

; Function Attrs: inlinehint mustprogress uwtable
define linkonce_odr void @_ZSt8_DestroyIPiEvT_S1_(ptr noundef %0, ptr noundef %1) #8 comdat {
  %3 = alloca ptr, align 8
  %4 = alloca ptr, align 8
  store ptr %0, ptr %3, align 8, !tbaa !81
  store ptr %1, ptr %4, align 8, !tbaa !81
  %5 = load ptr, ptr %3, align 8, !tbaa !81
  %6 = load ptr, ptr %4, align 8, !tbaa !81
  call void @_ZNSt12_Destroy_auxILb1EE9__destroyIPiEEvT_S3_(ptr noundef %5, ptr noundef %6)
  ret void
}

; Function Attrs: noinline noreturn nounwind uwtable
define linkonce_odr hidden void @__clang_call_terminate(ptr noundef %0) #6 comdat {
  %2 = call ptr @__cxa_begin_catch(ptr %0) #15
  call void @_ZSt9terminatev() #17
  unreachable
}

; Function Attrs: inlinehint mustprogress uwtable
define linkonce_odr void @_ZSt8_DestroyIPiiEvT_S1_RSaIT0_E(ptr noundef %0, ptr noundef %1, ptr noundef nonnull align 1 dereferenceable(1) %2) #8 comdat {
  %4 = alloca ptr, align 8
  %5 = alloca ptr, align 8
  %6 = alloca ptr, align 8
  store ptr %0, ptr %4, align 8, !tbaa !81
  store ptr %1, ptr %5, align 8, !tbaa !81
  store ptr %2, ptr %6, align 8, !tbaa !82
  %7 = load ptr, ptr %4, align 8, !tbaa !81
  %8 = load ptr, ptr %5, align 8, !tbaa !81
  call void @_ZSt8_DestroyIPiEvT_S1_(ptr noundef %7, ptr noundef %8)
  ret void
}

; Function Attrs: mustprogress nounwind uwtable
define linkonce_odr noundef nonnull align 1 dereferenceable(1) ptr @_ZNSt12_Vector_baseIiSaIiEE19_M_get_Tp_allocatorEv(ptr noundef nonnull align 8 dereferenceable(24) %0) #3 comdat align 2 {
  %2 = alloca ptr, align 8
  store ptr %0, ptr %2, align 8, !tbaa !84
  %3 = load ptr, ptr %2, align 8
  %4 = getelementptr inbounds nuw %"struct.std::_Vector_base.35", ptr %3, i32 0, i32 0
  ret ptr %4
}

; Function Attrs: mustprogress nounwind uwtable
define linkonce_odr void @_ZNSt6vectorIiSaIiEE15_M_erase_at_endEPi(ptr noundef nonnull align 8 dereferenceable(24) %0, ptr noundef %1) #3 comdat align 2 personality ptr @__gxx_personality_v0 {
  %3 = alloca ptr, align 8
  %4 = alloca ptr, align 8
  %5 = alloca i64, align 8
  store ptr %0, ptr %3, align 8, !tbaa !74
  store ptr %1, ptr %4, align 8, !tbaa !81
  %6 = load ptr, ptr %3, align 8
  call void @llvm.lifetime.start.p0(i64 8, ptr %5) #15
  %7 = getelementptr inbounds nuw %"struct.std::_Vector_base.35", ptr %6, i32 0, i32 0
  %8 = getelementptr inbounds nuw %"struct.std::_Vector_base<int, std::allocator<int>>::_Vector_impl_data", ptr %7, i32 0, i32 1
  %9 = load ptr, ptr %8, align 8, !tbaa !79
  %10 = load ptr, ptr %4, align 8, !tbaa !81
  %11 = ptrtoint ptr %9 to i64
  %12 = ptrtoint ptr %10 to i64
  %13 = sub i64 %11, %12
  %14 = sdiv exact i64 %13, 4
  store i64 %14, ptr %5, align 8, !tbaa !17
  %15 = load i64, ptr %5, align 8, !tbaa !17
  %16 = icmp ne i64 %15, 0
  br i1 %16, label %17, label %27

17:                                               ; preds = %2
  %18 = load ptr, ptr %4, align 8, !tbaa !81
  %19 = getelementptr inbounds nuw %"struct.std::_Vector_base.35", ptr %6, i32 0, i32 0
  %20 = getelementptr inbounds nuw %"struct.std::_Vector_base<int, std::allocator<int>>::_Vector_impl_data", ptr %19, i32 0, i32 1
  %21 = load ptr, ptr %20, align 8, !tbaa !79
  %22 = call noundef nonnull align 1 dereferenceable(1) ptr @_ZNSt12_Vector_baseIiSaIiEE19_M_get_Tp_allocatorEv(ptr noundef nonnull align 8 dereferenceable(24) %6) #15
  invoke void @_ZSt8_DestroyIPiiEvT_S1_RSaIT0_E(ptr noundef %18, ptr noundef %21, ptr noundef nonnull align 1 dereferenceable(1) %22)
          to label %23 unwind label %28

23:                                               ; preds = %17
  %24 = load ptr, ptr %4, align 8, !tbaa !81
  %25 = getelementptr inbounds nuw %"struct.std::_Vector_base.35", ptr %6, i32 0, i32 0
  %26 = getelementptr inbounds nuw %"struct.std::_Vector_base<int, std::allocator<int>>::_Vector_impl_data", ptr %25, i32 0, i32 1
  store ptr %24, ptr %26, align 8, !tbaa !79
  br label %27

27:                                               ; preds = %23, %2
  call void @llvm.lifetime.end.p0(i64 8, ptr %5) #15
  ret void

28:                                               ; preds = %17
  %29 = landingpad { ptr, i32 }
          catch ptr null
  %30 = extractvalue { ptr, i32 } %29, 0
  call void @__clang_call_terminate(ptr %30) #17
  unreachable
}

; Function Attrs: mustprogress nounwind uwtable
define linkonce_odr noundef i64 @_ZNKSt6vectorIiSaIiEE4sizeEv(ptr noundef nonnull align 8 dereferenceable(24) %0) #3 comdat align 2 {
  %2 = alloca ptr, align 8
  store ptr %0, ptr %2, align 8, !tbaa !74
  %3 = load ptr, ptr %2, align 8
  %4 = getelementptr inbounds nuw %"struct.std::_Vector_base.35", ptr %3, i32 0, i32 0
  %5 = getelementptr inbounds nuw %"struct.std::_Vector_base<int, std::allocator<int>>::_Vector_impl_data", ptr %4, i32 0, i32 1
  %6 = load ptr, ptr %5, align 8, !tbaa !79
  %7 = getelementptr inbounds nuw %"struct.std::_Vector_base.35", ptr %3, i32 0, i32 0
  %8 = getelementptr inbounds nuw %"struct.std::_Vector_base<int, std::allocator<int>>::_Vector_impl_data", ptr %7, i32 0, i32 0
  %9 = load ptr, ptr %8, align 8, !tbaa !76
  %10 = ptrtoint ptr %6 to i64
  %11 = ptrtoint ptr %9 to i64
  %12 = sub i64 %10, %11
  %13 = sdiv exact i64 %12, 4
  ret i64 %13
}

; Function Attrs: mustprogress uwtable
define linkonce_odr void @_ZNSt6vectorIiSaIiEE6resizeEm(ptr noundef nonnull align 8 dereferenceable(24) %0, i64 noundef %1) #0 comdat align 2 {
  %3 = alloca ptr, align 8
  %4 = alloca i64, align 8
  store ptr %0, ptr %3, align 8, !tbaa !74
  store i64 %1, ptr %4, align 8, !tbaa !17
  %5 = load ptr, ptr %3, align 8
  %6 = load i64, ptr %4, align 8, !tbaa !17
  %7 = call noundef i64 @_ZNKSt6vectorIiSaIiEE4sizeEv(ptr noundef nonnull align 8 dereferenceable(24) %5) #15
  %8 = icmp ugt i64 %6, %7
  br i1 %8, label %9, label %13

9:                                                ; preds = %2
  %10 = load i64, ptr %4, align 8, !tbaa !17
  %11 = call noundef i64 @_ZNKSt6vectorIiSaIiEE4sizeEv(ptr noundef nonnull align 8 dereferenceable(24) %5) #15
  %12 = sub i64 %10, %11
  call void @_ZNSt6vectorIiSaIiEE17_M_default_appendEm(ptr noundef nonnull align 8 dereferenceable(24) %5, i64 noundef %12)
  br label %24

13:                                               ; preds = %2
  %14 = load i64, ptr %4, align 8, !tbaa !17
  %15 = call noundef i64 @_ZNKSt6vectorIiSaIiEE4sizeEv(ptr noundef nonnull align 8 dereferenceable(24) %5) #15
  %16 = icmp ult i64 %14, %15
  br i1 %16, label %17, label %23

17:                                               ; preds = %13
  %18 = getelementptr inbounds nuw %"struct.std::_Vector_base.35", ptr %5, i32 0, i32 0
  %19 = getelementptr inbounds nuw %"struct.std::_Vector_base<int, std::allocator<int>>::_Vector_impl_data", ptr %18, i32 0, i32 0
  %20 = load ptr, ptr %19, align 8, !tbaa !76
  %21 = load i64, ptr %4, align 8, !tbaa !17
  %22 = getelementptr inbounds nuw i32, ptr %20, i64 %21
  call void @_ZNSt6vectorIiSaIiEE15_M_erase_at_endEPi(ptr noundef nonnull align 8 dereferenceable(24) %5, ptr noundef %22) #15
  br label %23

23:                                               ; preds = %17, %13
  br label %24

24:                                               ; preds = %23, %9
  ret void
}

; Function Attrs: mustprogress uwtable
define void @_Z28dd_resize_atominfo_and_stateP10t_forcerecP7t_statei(ptr noundef %0, ptr noundef %1, i32 noundef %2) #0 {
  %4 = alloca ptr, align 8
  %5 = alloca ptr, align 8
  %6 = alloca i32, align 4
  store ptr %0, ptr %4, align 8, !tbaa !70
  store ptr %1, ptr %5, align 8, !tbaa !72
  store i32 %2, ptr %6, align 4, !tbaa !4
  %7 = load ptr, ptr %4, align 8, !tbaa !70
  %8 = getelementptr inbounds nuw %struct.t_forcerec, ptr %7, i32 0, i32 21
  %9 = load i32, ptr %6, align 4, !tbaa !4
  %10 = sext i32 %9 to i64
  call void @_ZNSt6vectorIiSaIiEE6resizeEm(ptr noundef nonnull align 8 dereferenceable(24) %8, i64 noundef %10)
  %11 = load ptr, ptr %5, align 8, !tbaa !72
  %12 = load i32, ptr %6, align 4, !tbaa !4
  call void @_ZN7t_state14changeNumAtomsEi(ptr noundef nonnull align 8 dereferenceable(832) %11, i32 noundef %12)
  ret void
}