; Function Attrs: mustprogress uwtable
define void @_Z28dd_resize_atominfo_and_stateP10t_forcerecP7t_statei(ptr noundef %0, ptr noundef %1, i32 noundef %2) local_unnamed_addr #0 personality ptr @__gxx_personality_v0 {
  %4 = getelementptr inbounds nuw i8, ptr %0, i64 200
  %5 = sext i32 %2 to i64
  %6 = getelementptr inbounds nuw i8, ptr %0, i64 208
  %7 = load ptr, ptr %6, align 8, !tbaa !20
  %8 = load ptr, ptr %4, align 8, !tbaa !23
  %9 = ptrtoint ptr %7 to i64
  %10 = ptrtoint ptr %8 to i64
  %11 = sub i64 %9, %10
  %12 = ashr exact i64 %11, 2
  %13 = icmp ult i64 %12, %5
  br i1 %13, label %14, label %16

14:                                               ; preds = %3
  %15 = sub nuw nsw i64 %5, %12
  tail call void @_ZNSt6vectorIiSaIiEE17_M_default_appendEm(ptr noundef nonnull align 8 dereferenceable(24) %4, i64 noundef %15)
  br label %_ZNSt6vectorIiSaIiEE6resizeEm.exit

16:                                               ; preds = %3
  %17 = icmp ugt i64 %12, %5
  br i1 %17, label %18, label %_ZNSt6vectorIiSaIiEE6resizeEm.exit

18:                                               ; preds = %16
  %19 = getelementptr inbounds nuw i32, ptr %8, i64 %5
  %.not.i.i = icmp eq ptr %7, %19
  br i1 %.not.i.i, label %_ZNSt6vectorIiSaIiEE6resizeEm.exit, label %20

20:                                               ; preds = %18
  store ptr %19, ptr %6, align 8, !tbaa !20
  br label %_ZNSt6vectorIiSaIiEE6resizeEm.exit

_ZNSt6vectorIiSaIiEE6resizeEm.exit:               ; preds = %14, %16, %18, %20
  tail call void @_ZN7t_state14changeNumAtomsEi(ptr noundef nonnull align 8 dereferenceable(832) %1, i32 noundef %2)
  ret void
}